target datalayout = "e-m:e-p270:32:32-p271:32:32-p272:64:64-i64:64-i128:128-f80:128-n8:16:32:64-S128"
target triple = "x86_64-pc-linux-gnu"

%struct.Inter_Check_t_ = type { i32, i32, ptr, ptr, ptr, ptr, ptr, ptr }

; Function Attrs: inlinehint nounwind uwtable
define internal i32 @toLitCond(i32 noundef %0, i32 noundef %1) #3 {
  %3 = alloca i32, align 4
  %4 = alloca i32, align 4
  store i32 %0, ptr %3, align 4, !tbaa !8
  store i32 %1, ptr %4, align 4, !tbaa !8
  %5 = load i32, ptr %3, align 4, !tbaa !8
  %6 = load i32, ptr %3, align 4, !tbaa !8
  %7 = add nsw i32 %5, %6
  %8 = load i32, ptr %4, align 4, !tbaa !8
  %9 = icmp ne i32 %8, 0
  %10 = zext i1 %9 to i32
  %11 = add nsw i32 %7, %10
  ret i32 %11
}

; Function Attrs: nounwind uwtable
define void @Inter_CheckAddEqual(ptr noundef %0, i32 noundef %1, i32 noundef %2) #0 {
  %4 = alloca ptr, align 8
  %5 = alloca i32, align 4
  %6 = alloca i32, align 4
  %7 = alloca i32, align 4
  %8 = alloca [3 x i32], align 4
  store ptr %0, ptr %4, align 8, !tbaa !43
  store i32 %1, ptr %5, align 4, !tbaa !8
  store i32 %2, ptr %6, align 4, !tbaa !8
  call void @llvm.lifetime.start.p0(i64 4, ptr %7) #8
  call void @llvm.lifetime.start.p0(i64 12, ptr %8) #8
  %9 = load i32, ptr %5, align 4, !tbaa !8
  %10 = call i32 @toLitCond(i32 noundef %9, i32 noundef 1)
  %11 = getelementptr inbounds [3 x i32], ptr %8, i64 0, i64 0
  store i32 %10, ptr %11, align 4, !tbaa !8
  %12 = load i32, ptr %6, align 4, !tbaa !8
  %13 = call i32 @toLitCond(i32 noundef %12, i32 noundef 0)
  %14 = getelementptr inbounds [3 x i32], ptr %8, i64 0, i64 1
  store i32 %13, ptr %14, align 4, !tbaa !8
  %15 = load ptr, ptr %4, align 8, !tbaa !43
  %16 = getelementptr inbounds nuw %struct.Inter_Check_t_, ptr %15, i32 0, i32 4
  %17 = load ptr, ptr %16, align 8, !tbaa !53
  %18 = getelementptr inbounds [3 x i32], ptr %8, i64 0, i64 0
  %19 = getelementptr inbounds [3 x i32], ptr %8, i64 0, i64 0
  %20 = getelementptr inbounds i32, ptr %19, i64 2
  %21 = call i32 @sat_solver_addclause(ptr noundef %17, ptr noundef %18, ptr noundef %20)
  store i32 %21, ptr %7, align 4, !tbaa !8
  %22 = load i32, ptr %6, align 4, !tbaa !8
  %23 = call i32 @toLitCond(i32 noundef %22, i32 noundef 1)
  %24 = getelementptr inbounds [3 x i32], ptr %8, i64 0, i64 0
  store i32 %23, ptr %24, align 4, !tbaa !8
  %25 = load i32, ptr %5, align 4, !tbaa !8
  %26 = call i32 @toLitCond(i32 noundef %25, i32 noundef 0)
  %27 = getelementptr inbounds [3 x i32], ptr %8, i64 0, i64 1
  store i32 %26, ptr %27, align 4, !tbaa !8
  %28 = load ptr, ptr %4, align 8, !tbaa !43
  %29 = getelementptr inbounds nuw %struct.Inter_Check_t_, ptr %28, i32 0, i32 4
  %30 = load ptr, ptr %29, align 8, !tbaa !53
  %31 = getelementptr inbounds [3 x i32], ptr %8, i64 0, i64 0
  %32 = getelementptr inbounds [3 x i32], ptr %8, i64 0, i64 0
  %33 = getelementptr inbounds i32, ptr %32, i64 2
  %34 = call i32 @sat_solver_addclause(ptr noundef %30, ptr noundef %31, ptr noundef %33)
  store i32 %34, ptr %7, align 4, !tbaa !8
  call void @llvm.lifetime.end.p0(i64 12, ptr %8) #8
  call void @llvm.lifetime.end.p0(i64 4, ptr %7) #8
  ret void
}