; Function Attrs: nounwind uwtable
define void @Inter_CheckAddEqual(ptr noundef readonly captures(none) %0, i32 noundef %1, i32 noundef %2) local_unnamed_addr #0 {
  %4 = alloca [3 x i32], align 4
  call void @llvm.lifetime.start.p0(i64 12, ptr nonnull %4) #7
  %5 = shl nsw i32 %1, 1
  %6 = or disjoint i32 %5, 1
  store i32 %6, ptr %4, align 4, !tbaa !3
  %7 = shl nsw i32 %2, 1
  %8 = getelementptr inbounds nuw i8, ptr %4, i64 4
  store i32 %7, ptr %8, align 4, !tbaa !3
  %9 = getelementptr inbounds nuw i8, ptr %0, i64 24
  %10 = load ptr, ptr %9, align 8, !tbaa !54
  %11 = getelementptr inbounds nuw i8, ptr %4, i64 8
  %12 = call i32 @sat_solver_addclause(ptr noundef %10, ptr noundef nonnull %4, ptr noundef nonnull %11) #7
  %13 = or disjoint i32 %7, 1
  store i32 %13, ptr %4, align 4, !tbaa !3
  store i32 %5, ptr %8, align 4, !tbaa !3
  %14 = load ptr, ptr %9, align 8, !tbaa !54
  %15 = call i32 @sat_solver_addclause(ptr noundef %14, ptr noundef nonnull %4, ptr noundef nonnull %11) #7
  call void @llvm.lifetime.end.p0(i64 12, ptr nonnull %4) #7
  ret void
}